Component: Arm Compiler for Embedded 6.24 Tool: armlink [5f371500]

==============================================================================

Section Cross References

    main.o(.text.main) refers to hal_gpio.o(.text.hal_gpio_init_output) for hal_gpio_init_output
    main.o(.text.main) refers to power_mode_1.o(.text.power_set_clock) for power_set_clock
    main.o(.text.main) refers to power_mode_1.o(.text.power_init) for power_init
    main.o(.text.main) refers to output_1.o(.text.output_init) for output_init
    main.o(.text.main) refers to output_1.o(.text.setOutputEnable) for setOutputEnable
    main.o(.text.main) refers to main.o(.bss.aes_message) for aes_message
    main.o(.text.main) refers to wakeup_timer_1.o(.text.wakeup_init) for wakeup_init
    main.o(.text.main) refers to power_mode_1.o(.text.power_enter_sleep) for power_enter_sleep
    main.o(.text.main) refers to ese_aes.o(.text.runAES) for runAES
    main.o(.ARM.exidx.text.main) refers to main.o(.text.main) for [Anonymous Symbol]
    datainit_ctboard.o(.text) refers (Weak) to startup_ctboard.o(STACK) for Stack_Mem
    datainit_ctboard.o(.text) refers to main.o(.text.main) for main
    startup_ctboard.o(RESET) refers to startup_ctboard.o(STACK) for __initial_sp
    startup_ctboard.o(RESET) refers to startup_ctboard.o(.text) for Reset_Handler
    startup_ctboard.o(RESET) refers to wakeup_timer_1.o(.text.RTC_WKUP_IRQHandler) for RTC_WKUP_IRQHandler
    startup_ctboard.o(.text) refers to system_ctboard.o(.text.__system) for __system
    startup_ctboard.o(.text) refers to datainit_ctboard.o(.text) for __main
    system_ctboard.o(.text.__system) refers to system_ctboard.o(.text.system_enter_run) for system_enter_run
    system_ctboard.o(.ARM.exidx.text.__system) refers to system_ctboard.o(.text.__system) for [Anonymous Symbol]
    system_ctboard.o(.text.system_enter_run) refers to hal_rcc.o(.text.hal_rcc_reset) for hal_rcc_reset
    system_ctboard.o(.text.system_enter_run) refers to hal_rcc.o(.text.hal_rcc_set_osc) for hal_rcc_set_osc
    system_ctboard.o(.text.system_enter_run) refers to hal_rcc.o(.text.hal_rcc_setup_pll) for hal_rcc_setup_pll
    system_ctboard.o(.text.system_enter_run) refers to hal_pwr.o(.text.hal_pwr_set_overdrive) for hal_pwr_set_overdrive
    system_ctboard.o(.text.system_enter_run) refers to hal_rcc.o(.text.hal_rcc_setup_clock) for hal_rcc_setup_clock
    system_ctboard.o(.text.system_enter_run) refers to hal_gpio.o(.text.hal_gpio_init_alternate) for hal_gpio_init_alternate
    system_ctboard.o(.text.system_enter_run) refers to hal_fmc.o(.text.hal_fmc_init_sram) for hal_fmc_init_sram
    system_ctboard.o(.ARM.exidx.text.system_enter_run) refers to system_ctboard.o(.text.system_enter_run) for [Anonymous Symbol]
    system_ctboard.o(.ARM.exidx.text.system_enter_sleep) refers to system_ctboard.o(.text.system_enter_sleep) for [Anonymous Symbol]
    system_ctboard.o(.ARM.exidx.text.system_enter_stop) refers to system_ctboard.o(.text.system_enter_stop) for [Anonymous Symbol]
    system_ctboard.o(.ARM.exidx.text.system_enter_standby) refers to system_ctboard.o(.text.system_enter_standby) for [Anonymous Symbol]
    hal_fmc.o(.ARM.exidx.text.hal_fmc_reset) refers to hal_fmc.o(.text.hal_fmc_reset) for [Anonymous Symbol]
    hal_fmc.o(.ARM.exidx.text.hal_fmc_init_sram) refers to hal_fmc.o(.text.hal_fmc_init_sram) for [Anonymous Symbol]
    hal_gpio.o(.ARM.exidx.text.hal_gpio_reset) refers to hal_gpio.o(.text.hal_gpio_reset) for [Anonymous Symbol]
    hal_gpio.o(.ARM.exidx.text.hal_gpio_init_input) refers to hal_gpio.o(.text.hal_gpio_init_input) for [Anonymous Symbol]
    hal_gpio.o(.ARM.exidx.text.hal_gpio_init_analog) refers to hal_gpio.o(.text.hal_gpio_init_analog) for [Anonymous Symbol]
    hal_gpio.o(.ARM.exidx.text.hal_gpio_init_output) refers to hal_gpio.o(.text.hal_gpio_init_output) for [Anonymous Symbol]
    hal_gpio.o(.text.hal_gpio_init_alternate) refers to hal_gpio.o(.text.hal_gpio_init_output) for hal_gpio_init_output
    hal_gpio.o(.ARM.exidx.text.hal_gpio_init_alternate) refers to hal_gpio.o(.text.hal_gpio_init_alternate) for [Anonymous Symbol]
    hal_gpio.o(.ARM.exidx.text.hal_gpio_input_read) refers to hal_gpio.o(.text.hal_gpio_input_read) for [Anonymous Symbol]
    hal_gpio.o(.ARM.exidx.text.hal_gpio_output_read) refers to hal_gpio.o(.text.hal_gpio_output_read) for [Anonymous Symbol]
    hal_gpio.o(.ARM.exidx.text.hal_gpio_output_write) refers to hal_gpio.o(.text.hal_gpio_output_write) for [Anonymous Symbol]
    hal_gpio.o(.ARM.exidx.text.hal_gpio_bit_set) refers to hal_gpio.o(.text.hal_gpio_bit_set) for [Anonymous Symbol]
    hal_gpio.o(.ARM.exidx.text.hal_gpio_bit_reset) refers to hal_gpio.o(.text.hal_gpio_bit_reset) for [Anonymous Symbol]
    hal_gpio.o(.ARM.exidx.text.hal_gpio_bit_toggle) refers to hal_gpio.o(.text.hal_gpio_bit_toggle) for [Anonymous Symbol]
    hal_gpio.o(.ARM.exidx.text.hal_gpio_irq_set) refers to hal_gpio.o(.text.hal_gpio_irq_set) for [Anonymous Symbol]
    hal_gpio.o(.ARM.exidx.text.hal_gpio_irq_status) refers to hal_gpio.o(.text.hal_gpio_irq_status) for [Anonymous Symbol]
    hal_gpio.o(.ARM.exidx.text.hal_gpio_irq_clear) refers to hal_gpio.o(.text.hal_gpio_irq_clear) for [Anonymous Symbol]
    hal_pwr.o(.ARM.exidx.text.hal_pwr_reset) refers to hal_pwr.o(.text.hal_pwr_reset) for [Anonymous Symbol]
    hal_pwr.o(.ARM.exidx.text.hal_pwr_set_backup_domain) refers to hal_pwr.o(.text.hal_pwr_set_backup_domain) for [Anonymous Symbol]
    hal_pwr.o(.ARM.exidx.text.hal_pwr_set_backup_access) refers to hal_pwr.o(.text.hal_pwr_set_backup_access) for [Anonymous Symbol]
    hal_pwr.o(.ARM.exidx.text.hal_pwr_set_wakeup_pin) refers to hal_pwr.o(.text.hal_pwr_set_wakeup_pin) for [Anonymous Symbol]
    hal_pwr.o(.ARM.exidx.text.hal_pwr_set_flash_powerdown) refers to hal_pwr.o(.text.hal_pwr_set_flash_powerdown) for [Anonymous Symbol]
    hal_pwr.o(.ARM.exidx.text.hal_pwr_set_overdrive) refers to hal_pwr.o(.text.hal_pwr_set_overdrive) for [Anonymous Symbol]
    hal_pwr.o(.ARM.exidx.text.hal_pwr_set_underdrive) refers to hal_pwr.o(.text.hal_pwr_set_underdrive) for [Anonymous Symbol]
    hal_rcc.o(.ARM.exidx.text.hal_rcc_reset) refers to hal_rcc.o(.text.hal_rcc_reset) for [Anonymous Symbol]
    hal_rcc.o(.ARM.exidx.text.hal_rcc_set_peripheral) refers to hal_rcc.o(.text.hal_rcc_set_peripheral) for [Anonymous Symbol]
    hal_rcc.o(.ARM.exidx.text.hal_rcc_set_osc) refers to hal_rcc.o(.text.hal_rcc_set_osc) for [Anonymous Symbol]
    hal_rcc.o(.ARM.exidx.text.hal_rcc_setup_pll) refers to hal_rcc.o(.text.hal_rcc_setup_pll) for [Anonymous Symbol]
    hal_rcc.o(.ARM.exidx.text.hal_rcc_setup_clock) refers to hal_rcc.o(.text.hal_rcc_setup_clock) for [Anonymous Symbol]
    output_1.o(.text.output_init) refers to hal_gpio.o(.text.hal_gpio_init_output) for hal_gpio_init_output
    output_1.o(.text.output_init) refers to hal_gpio.o(.text.hal_gpio_bit_reset) for hal_gpio_bit_reset
    output_1.o(.text.output_init) refers to output_1.o(.bss.output_enable) for output_enable
    output_1.o(.ARM.exidx.text.output_init) refers to output_1.o(.text.output_init) for [Anonymous Symbol]
    output_1.o(.text.output_set_green) refers to output_1.o(.bss.output_enable) for output_enable
    output_1.o(.text.output_set_green) refers to hal_gpio.o(.text.hal_gpio_bit_set) for hal_gpio_bit_set
    output_1.o(.text.output_set_green) refers to hal_gpio.o(.text.hal_gpio_bit_reset) for hal_gpio_bit_reset
    output_1.o(.ARM.exidx.text.output_set_green) refers to output_1.o(.text.output_set_green) for [Anonymous Symbol]
    output_1.o(.text.output_set_red) refers to output_1.o(.bss.output_enable) for output_enable
    output_1.o(.text.output_set_red) refers to hal_gpio.o(.text.hal_gpio_bit_set) for hal_gpio_bit_set
    output_1.o(.text.output_set_red) refers to hal_gpio.o(.text.hal_gpio_bit_reset) for hal_gpio_bit_reset
    output_1.o(.ARM.exidx.text.output_set_red) refers to output_1.o(.text.output_set_red) for [Anonymous Symbol]
    output_1.o(.text.setOutputEnable) refers to output_1.o(.bss.output_enable) for output_enable
    output_1.o(.ARM.exidx.text.setOutputEnable) refers to output_1.o(.text.setOutputEnable) for [Anonymous Symbol]
    power_mode_1.o(.ARM.exidx.text.power_init) refers to power_mode_1.o(.text.power_init) for [Anonymous Symbol]
    power_mode_1.o(.ARM.exidx.text.power_enter_sleep) refers to power_mode_1.o(.text.power_enter_sleep) for [Anonymous Symbol]
    power_mode_1.o(.ARM.exidx.text.power_enter_stop) refers to power_mode_1.o(.text.power_enter_stop) for [Anonymous Symbol]
    power_mode_1.o(.text.power_set_clock) refers to power_mode_1.o(.text.fill_init_structs) for fill_init_structs
    power_mode_1.o(.text.power_set_clock) refers to hal_rcc.o(.text.hal_rcc_set_osc) for hal_rcc_set_osc
    power_mode_1.o(.text.power_set_clock) refers to hal_rcc.o(.text.hal_rcc_setup_pll) for hal_rcc_setup_pll
    power_mode_1.o(.text.power_set_clock) refers to hal_pwr.o(.text.hal_pwr_set_overdrive) for hal_pwr_set_overdrive
    power_mode_1.o(.text.power_set_clock) refers to hal_rcc.o(.text.hal_rcc_setup_clock) for hal_rcc_setup_clock
    power_mode_1.o(.ARM.exidx.text.power_set_clock) refers to power_mode_1.o(.text.power_set_clock) for [Anonymous Symbol]
    power_mode_1.o(.ARM.exidx.text.fill_init_structs) refers to power_mode_1.o(.text.fill_init_structs) for [Anonymous Symbol]
    wakeup_timer_1.o(.ARM.exidx.text.wakeup_init) refers to wakeup_timer_1.o(.text.wakeup_init) for [Anonymous Symbol]
    wakeup_timer_1.o(.ARM.exidx.text.RTC_WKUP_IRQHandler) refers to wakeup_timer_1.o(.text.RTC_WKUP_IRQHandler) for [Anonymous Symbol]
    ese_aes.o(.text.ESE_DEV_AES) refers to ese_aes.o(.rodata..L__const.ESE_DEV_AES.enc_a) for .L__const.ESE_DEV_AES.enc_a
    ese_aes.o(.text.ESE_DEV_AES) refers to ese_aes.o(.rodata..L__const.ESE_DEV_AES.dec_a) for .L__const.ESE_DEV_AES.dec_a
    ese_aes.o(.text.ESE_DEV_AES) refers to ese_aes.o(.bss.ESE_DEV_AES.ctx) for ESE_DEV_AES.ctx
    ese_aes.o(.text.ESE_DEV_AES) refers to ese_aes.o(.data.key) for key
    ese_aes.o(.text.ESE_DEV_AES) refers to ese_aes.o(.data.iv) for iv
    ese_aes.o(.text.ESE_DEV_AES) refers to aes.o(.text.AES_init_ctx_iv) for AES_init_ctx_iv
    ese_aes.o(.text.ESE_DEV_AES) refers to aes.o(.text.AES_CBC_encrypt_buffer) for AES_CBC_encrypt_buffer
    ese_aes.o(.text.ESE_DEV_AES) refers to aes.o(.text.AES_CBC_decrypt_buffer) for AES_CBC_decrypt_buffer
    ese_aes.o(.text.ESE_DEV_AES) refers to memcmp.o(.text) for memcmp
    ese_aes.o(.ARM.exidx.text.ESE_DEV_AES) refers to ese_aes.o(.text.ESE_DEV_AES) for [Anonymous Symbol]
    ese_aes.o(.text.runAES) refers to rt_memcpy_v6.o(.text) for __aeabi_memcpy
    ese_aes.o(.text.runAES) refers to ese_aes.o(.bss.runAES.ctx) for runAES.ctx
    ese_aes.o(.text.runAES) refers to ese_aes.o(.data.key) for key
    ese_aes.o(.text.runAES) refers to ese_aes.o(.data.iv) for iv
    ese_aes.o(.text.runAES) refers to aes.o(.text.AES_init_ctx_iv) for AES_init_ctx_iv
    ese_aes.o(.text.runAES) refers to aes.o(.text.AES_CBC_encrypt_buffer) for AES_CBC_encrypt_buffer
    ese_aes.o(.text.runAES) refers to aes.o(.text.AES_CBC_decrypt_buffer) for AES_CBC_decrypt_buffer
    ese_aes.o(.ARM.exidx.text.runAES) refers to ese_aes.o(.text.runAES) for [Anonymous Symbol]
    aes.o(.text.AES_init_ctx) refers to aes.o(.text.KeyExpansion) for KeyExpansion
    aes.o(.ARM.exidx.text.AES_init_ctx) refers to aes.o(.text.AES_init_ctx) for [Anonymous Symbol]
    aes.o(.text.KeyExpansion) refers to aes.o(.rodata.sbox) for sbox
    aes.o(.ARM.exidx.text.KeyExpansion) refers to aes.o(.text.KeyExpansion) for [Anonymous Symbol]
    aes.o(.text.AES_init_ctx_iv) refers to aes.o(.text.KeyExpansion) for KeyExpansion
    aes.o(.ARM.exidx.text.AES_init_ctx_iv) refers to aes.o(.text.AES_init_ctx_iv) for [Anonymous Symbol]
    aes.o(.ARM.exidx.text.AES_ctx_set_iv) refers to aes.o(.text.AES_ctx_set_iv) for [Anonymous Symbol]
    aes.o(.text.AES_ECB_encrypt) refers to aes.o(.text.Cipher) for Cipher
    aes.o(.ARM.exidx.text.AES_ECB_encrypt) refers to aes.o(.text.AES_ECB_encrypt) for [Anonymous Symbol]
    aes.o(.text.Cipher) refers to aes.o(.rodata.sbox) for sbox
    aes.o(.ARM.exidx.text.Cipher) refers to aes.o(.text.Cipher) for [Anonymous Symbol]
    aes.o(.text.AES_ECB_decrypt) refers to aes.o(.text.InvCipher) for InvCipher
    aes.o(.ARM.exidx.text.AES_ECB_decrypt) refers to aes.o(.text.AES_ECB_decrypt) for [Anonymous Symbol]
    aes.o(.text.InvCipher) refers to aes.o(.rodata.rsbox) for rsbox
    aes.o(.ARM.exidx.text.InvCipher) refers to aes.o(.text.InvCipher) for [Anonymous Symbol]
    aes.o(.text.AES_CBC_encrypt_buffer) refers to aes.o(.text.Cipher) for Cipher
    aes.o(.ARM.exidx.text.AES_CBC_encrypt_buffer) refers to aes.o(.text.AES_CBC_encrypt_buffer) for [Anonymous Symbol]
    aes.o(.text.AES_CBC_decrypt_buffer) refers to aes.o(.text.InvCipher) for InvCipher
    aes.o(.ARM.exidx.text.AES_CBC_decrypt_buffer) refers to aes.o(.text.AES_CBC_decrypt_buffer) for [Anonymous Symbol]
    aes.o(.text.AES_CTR_xcrypt_buffer) refers to aes.o(.text.Cipher) for Cipher
    aes.o(.ARM.exidx.text.AES_CTR_xcrypt_buffer) refers to aes.o(.text.AES_CTR_xcrypt_buffer) for [Anonymous Symbol]
    rt_memcpy_v6.o(.text) refers to rt_memcpy_w.o(.text) for __aeabi_memcpy4


==============================================================================

Removing Unused input sections from the image.

    Removing main.o(.text), (0 bytes).
    Removing main.o(.ARM.exidx.text.main), (8 bytes).
    Removing main.o(.ARM.use_no_argv), (4 bytes).
    Removing startup_ctboard.o(HEAP), (2048 bytes).
    Removing system_ctboard.o(.text), (0 bytes).
    Removing system_ctboard.o(.ARM.exidx.text.__system), (8 bytes).
    Removing system_ctboard.o(.ARM.exidx.text.system_enter_run), (8 bytes).
    Removing system_ctboard.o(.text.system_enter_sleep), (2 bytes).
    Removing system_ctboard.o(.ARM.exidx.text.system_enter_sleep), (8 bytes).
    Removing system_ctboard.o(.text.system_enter_stop), (2 bytes).
    Removing system_ctboard.o(.ARM.exidx.text.system_enter_stop), (8 bytes).
    Removing system_ctboard.o(.text.system_enter_standby), (2 bytes).
    Removing system_ctboard.o(.ARM.exidx.text.system_enter_standby), (8 bytes).
    Removing hal_fmc.o(.text), (0 bytes).
    Removing hal_fmc.o(.text.hal_fmc_reset), (66 bytes).
    Removing hal_fmc.o(.ARM.exidx.text.hal_fmc_reset), (8 bytes).
    Removing hal_fmc.o(.ARM.exidx.text.hal_fmc_init_sram), (8 bytes).
    Removing hal_gpio.o(.text), (0 bytes).
    Removing hal_gpio.o(.text.hal_gpio_reset), (92 bytes).
    Removing hal_gpio.o(.ARM.exidx.text.hal_gpio_reset), (8 bytes).
    Removing hal_gpio.o(.text.hal_gpio_init_input), (154 bytes).
    Removing hal_gpio.o(.ARM.exidx.text.hal_gpio_init_input), (8 bytes).
    Removing hal_gpio.o(.text.hal_gpio_init_analog), (224 bytes).
    Removing hal_gpio.o(.ARM.exidx.text.hal_gpio_init_analog), (8 bytes).
    Removing hal_gpio.o(.ARM.exidx.text.hal_gpio_init_output), (8 bytes).
    Removing hal_gpio.o(.ARM.exidx.text.hal_gpio_init_alternate), (8 bytes).
    Removing hal_gpio.o(.text.hal_gpio_input_read), (6 bytes).
    Removing hal_gpio.o(.ARM.exidx.text.hal_gpio_input_read), (8 bytes).
    Removing hal_gpio.o(.text.hal_gpio_output_read), (6 bytes).
    Removing hal_gpio.o(.ARM.exidx.text.hal_gpio_output_read), (8 bytes).
    Removing hal_gpio.o(.text.hal_gpio_output_write), (24 bytes).
    Removing hal_gpio.o(.ARM.exidx.text.hal_gpio_output_write), (8 bytes).
    Removing hal_gpio.o(.text.hal_gpio_bit_set), (28 bytes).
    Removing hal_gpio.o(.ARM.exidx.text.hal_gpio_bit_set), (8 bytes).
    Removing hal_gpio.o(.ARM.exidx.text.hal_gpio_bit_reset), (8 bytes).
    Removing hal_gpio.o(.text.hal_gpio_bit_toggle), (34 bytes).
    Removing hal_gpio.o(.ARM.exidx.text.hal_gpio_bit_toggle), (8 bytes).
    Removing hal_gpio.o(.text.hal_gpio_irq_set), (386 bytes).
    Removing hal_gpio.o(.ARM.exidx.text.hal_gpio_irq_set), (8 bytes).
    Removing hal_gpio.o(.text.hal_gpio_irq_status), (34 bytes).
    Removing hal_gpio.o(.ARM.exidx.text.hal_gpio_irq_status), (8 bytes).
    Removing hal_gpio.o(.text.hal_gpio_irq_clear), (16 bytes).
    Removing hal_gpio.o(.ARM.exidx.text.hal_gpio_irq_clear), (8 bytes).
    Removing hal_pwr.o(.text), (0 bytes).
    Removing hal_pwr.o(.text.hal_pwr_reset), (20 bytes).
    Removing hal_pwr.o(.ARM.exidx.text.hal_pwr_reset), (8 bytes).
    Removing hal_pwr.o(.text.hal_pwr_set_backup_domain), (52 bytes).
    Removing hal_pwr.o(.ARM.exidx.text.hal_pwr_set_backup_domain), (8 bytes).
    Removing hal_pwr.o(.text.hal_pwr_set_backup_access), (26 bytes).
    Removing hal_pwr.o(.ARM.exidx.text.hal_pwr_set_backup_access), (8 bytes).
    Removing hal_pwr.o(.text.hal_pwr_set_wakeup_pin), (26 bytes).
    Removing hal_pwr.o(.ARM.exidx.text.hal_pwr_set_wakeup_pin), (8 bytes).
    Removing hal_pwr.o(.text.hal_pwr_set_flash_powerdown), (26 bytes).
    Removing hal_pwr.o(.ARM.exidx.text.hal_pwr_set_flash_powerdown), (8 bytes).
    Removing hal_pwr.o(.ARM.exidx.text.hal_pwr_set_overdrive), (8 bytes).
    Removing hal_pwr.o(.text.hal_pwr_set_underdrive), (4 bytes).
    Removing hal_pwr.o(.ARM.exidx.text.hal_pwr_set_underdrive), (8 bytes).
    Removing hal_rcc.o(.text), (0 bytes).
    Removing hal_rcc.o(.ARM.exidx.text.hal_rcc_reset), (8 bytes).
    Removing hal_rcc.o(.text.hal_rcc_set_peripheral), (182 bytes).
    Removing hal_rcc.o(.ARM.exidx.text.hal_rcc_set_peripheral), (8 bytes).
    Removing hal_rcc.o(.ARM.exidx.text.hal_rcc_set_osc), (8 bytes).
    Removing hal_rcc.o(.ARM.exidx.text.hal_rcc_setup_pll), (8 bytes).
    Removing hal_rcc.o(.ARM.exidx.text.hal_rcc_setup_clock), (8 bytes).
    Removing output_1.o(.text), (0 bytes).
    Removing output_1.o(.ARM.exidx.text.output_init), (8 bytes).
    Removing output_1.o(.text.output_set_green), (74 bytes).
    Removing output_1.o(.ARM.exidx.text.output_set_green), (8 bytes).
    Removing output_1.o(.text.output_set_red), (74 bytes).
    Removing output_1.o(.ARM.exidx.text.output_set_red), (8 bytes).
    Removing output_1.o(.ARM.exidx.text.setOutputEnable), (8 bytes).
    Removing power_mode_1.o(.text), (0 bytes).
    Removing power_mode_1.o(.ARM.exidx.text.power_init), (8 bytes).
    Removing power_mode_1.o(.ARM.exidx.text.power_enter_sleep), (8 bytes).
    Removing power_mode_1.o(.text.power_enter_stop), (60 bytes).
    Removing power_mode_1.o(.ARM.exidx.text.power_enter_stop), (8 bytes).
    Removing power_mode_1.o(.ARM.exidx.text.power_set_clock), (8 bytes).
    Removing power_mode_1.o(.ARM.exidx.text.fill_init_structs), (8 bytes).
    Removing wakeup_timer_1.o(.text), (0 bytes).
    Removing wakeup_timer_1.o(.ARM.exidx.text.wakeup_init), (8 bytes).
    Removing wakeup_timer_1.o(.ARM.exidx.text.RTC_WKUP_IRQHandler), (8 bytes).
    Removing ese_aes.o(.text), (0 bytes).
    Removing ese_aes.o(.text.ESE_DEV_AES), (242 bytes).
    Removing ese_aes.o(.ARM.exidx.text.ESE_DEV_AES), (8 bytes).
    Removing ese_aes.o(.ARM.exidx.text.runAES), (8 bytes).
    Removing ese_aes.o(.rodata..L__const.ESE_DEV_AES.enc_a), (64 bytes).
    Removing ese_aes.o(.rodata..L__const.ESE_DEV_AES.dec_a), (64 bytes).
    Removing ese_aes.o(.bss.ESE_DEV_AES.ctx), (256 bytes).
    Removing aes.o(.text), (0 bytes).
    Removing aes.o(.text.AES_init_ctx), (8 bytes).
    Removing aes.o(.ARM.exidx.text.AES_init_ctx), (8 bytes).
    Removing aes.o(.ARM.exidx.text.KeyExpansion), (8 bytes).
    Removing aes.o(.ARM.exidx.text.AES_init_ctx_iv), (8 bytes).
    Removing aes.o(.text.AES_ctx_set_iv), (28 bytes).
    Removing aes.o(.ARM.exidx.text.AES_ctx_set_iv), (8 bytes).
    Removing aes.o(.text.AES_ECB_encrypt), (14 bytes).
    Removing aes.o(.ARM.exidx.text.AES_ECB_encrypt), (8 bytes).
    Removing aes.o(.ARM.exidx.text.Cipher), (8 bytes).
    Removing aes.o(.text.AES_ECB_decrypt), (14 bytes).
    Removing aes.o(.ARM.exidx.text.AES_ECB_decrypt), (8 bytes).
    Removing aes.o(.ARM.exidx.text.InvCipher), (8 bytes).
    Removing aes.o(.ARM.exidx.text.AES_CBC_encrypt_buffer), (8 bytes).
    Removing aes.o(.ARM.exidx.text.AES_CBC_decrypt_buffer), (8 bytes).
    Removing aes.o(.text.AES_CTR_xcrypt_buffer), (114 bytes).
    Removing aes.o(.ARM.exidx.text.AES_CTR_xcrypt_buffer), (8 bytes).

105 unused section(s) (total 4940 bytes) removed from the image.

==============================================================================

Image Symbol Table

    Local Symbols

    Symbol Name                              Value     Ov Type        Size  Object(Section)

    ../clib/memcpset.s                       0x00000000   Number         0  rt_memcpy_v6.o ABSOLUTE
    ../clib/memcpset.s                       0x00000000   Number         0  rt_memcpy_w.o ABSOLUTE
    ../clib/string.c                         0x00000000   Number         0  memcmp.o ABSOLUTE
    RTE/Device/CT_Board_HS14_M4/datainit_ctboard.s 0x00000000   Number         0  datainit_ctboard.o ABSOLUTE
    RTE/Device/CT_Board_HS14_M4/startup_ctboard.s 0x00000000   Number         0  startup_ctboard.o ABSOLUTE
    aes.c                                    0x00000000   Number         0  aes.o ABSOLUTE
    dc.s                                     0x00000000   Number         0  dc.o ABSOLUTE
    ese_aes.c                                0x00000000   Number         0  ese_aes.o ABSOLUTE
    hal_fmc.c                                0x00000000   Number         0  hal_fmc.o ABSOLUTE
    hal_gpio.c                               0x00000000   Number         0  hal_gpio.o ABSOLUTE
    hal_pwr.c                                0x00000000   Number         0  hal_pwr.o ABSOLUTE
    hal_rcc.c                                0x00000000   Number         0  hal_rcc.o ABSOLUTE
    main.c                                   0x00000000   Number         0  main.o ABSOLUTE
    output.c                                 0x00000000   Number         0  output_1.o ABSOLUTE
    power_mode.c                             0x00000000   Number         0  power_mode_1.o ABSOLUTE
    system_ctboard.c                         0x00000000   Number         0  system_ctboard.o ABSOLUTE
    wakeup_timer.c                           0x00000000   Number         0  wakeup_timer_1.o ABSOLUTE
    RESET                                    0x08000000   Section      428  startup_ctboard.o(RESET)
    $v0                                      0x080001ac   Number         0  datainit_ctboard.o(.text)
    .text                                    0x080001ac   Section      124  datainit_ctboard.o(.text)
    $v0                                      0x08000228   Number         0  startup_ctboard.o(.text)
    .text                                    0x08000228   Section       36  startup_ctboard.o(.text)
    .text                                    0x0800024c   Section      138  rt_memcpy_v6.o(.text)
    .text                                    0x080002d6   Section      100  rt_memcpy_w.o(.text)
    [Anonymous Symbol]                       0x0800033c   Section        0  aes.o(.text.AES_CBC_decrypt_buffer)
    [Anonymous Symbol]                       0x0800039c   Section        0  aes.o(.text.AES_CBC_encrypt_buffer)
    [Anonymous Symbol]                       0x080003f4   Section        0  aes.o(.text.AES_init_ctx_iv)
    Cipher                                   0x08000419   Thumb Code   384  aes.o(.text.Cipher)
    [Anonymous Symbol]                       0x08000418   Section        0  aes.o(.text.Cipher)
    InvCipher                                0x08000599   Thumb Code   574  aes.o(.text.InvCipher)
    [Anonymous Symbol]                       0x08000598   Section        0  aes.o(.text.InvCipher)
    KeyExpansion                             0x080007d9   Thumb Code   188  aes.o(.text.KeyExpansion)
    [Anonymous Symbol]                       0x080007d8   Section        0  aes.o(.text.KeyExpansion)
    Rcon                                     0x08000894   Number         0  aes.o(.text.KeyExpansion)
    [Anonymous Symbol]                       0x080008a0   Section        0  wakeup_timer_1.o(.text.RTC_WKUP_IRQHandler)
    [Anonymous Symbol]                       0x080008c4   Section        0  system_ctboard.o(.text.__system)
    fill_init_structs                        0x080008c9   Thumb Code   240  power_mode_1.o(.text.fill_init_structs)
    [Anonymous Symbol]                       0x080008c8   Section        0  power_mode_1.o(.text.fill_init_structs)
    [Anonymous Symbol]                       0x080009b8   Section        0  hal_fmc.o(.text.hal_fmc_init_sram)
    [Anonymous Symbol]                       0x08000af8   Section        0  hal_gpio.o(.text.hal_gpio_bit_reset)
    [Anonymous Symbol]                       0x08000b18   Section        0  hal_gpio.o(.text.hal_gpio_init_alternate)
    [Anonymous Symbol]                       0x08000c28   Section        0  hal_gpio.o(.text.hal_gpio_init_output)
    [Anonymous Symbol]                       0x08000d4c   Section        0  hal_pwr.o(.text.hal_pwr_set_overdrive)
    [Anonymous Symbol]                       0x08000d50   Section        0  hal_rcc.o(.text.hal_rcc_reset)
    [Anonymous Symbol]                       0x08000dec   Section        0  hal_rcc.o(.text.hal_rcc_set_osc)
    [Anonymous Symbol]                       0x08000e78   Section        0  hal_rcc.o(.text.hal_rcc_setup_clock)
    [Anonymous Symbol]                       0x08000ee8   Section        0  hal_rcc.o(.text.hal_rcc_setup_pll)
    [Anonymous Symbol]                       0x08000fcc   Section        0  main.o(.text.main)
    [Anonymous Symbol]                       0x080010d4   Section        0  output_1.o(.text.output_init)
    [Anonymous Symbol]                       0x08001134   Section        0  power_mode_1.o(.text.power_enter_sleep)
    [Anonymous Symbol]                       0x08001148   Section        0  power_mode_1.o(.text.power_init)
    [Anonymous Symbol]                       0x08001164   Section        0  power_mode_1.o(.text.power_set_clock)
    [Anonymous Symbol]                       0x08001220   Section        0  ese_aes.o(.text.runAES)
    [Anonymous Symbol]                       0x08001280   Section        0  output_1.o(.text.setOutputEnable)
    [Anonymous Symbol]                       0x08001298   Section        0  system_ctboard.o(.text.system_enter_run)
    [Anonymous Symbol]                       0x080013dc   Section        0  wakeup_timer_1.o(.text.wakeup_init)
    rsbox                                    0x08001532   Data         256  aes.o(.rodata.rsbox)
    [Anonymous Symbol]                       0x08001532   Section        0  aes.o(.rodata.rsbox)
    sbox                                     0x08001632   Data         256  aes.o(.rodata.sbox)
    [Anonymous Symbol]                       0x08001632   Section        0  aes.o(.rodata.sbox)
    aes_message                              0x20000030   Data         256  main.o(.bss.aes_message)
    [Anonymous Symbol]                       0x20000030   Section        0  main.o(.bss.aes_message)
    output_enable                            0x20000130   Data           1  output_1.o(.bss.output_enable)
    [Anonymous Symbol]                       0x20000130   Section        0  output_1.o(.bss.output_enable)
    runAES.ctx                               0x20000131   Data         256  ese_aes.o(.bss.runAES.ctx)
    [Anonymous Symbol]                       0x20000131   Section        0  ese_aes.o(.bss.runAES.ctx)
    STACK                                    0x20000238   Section     8192  startup_ctboard.o(STACK)
    __initial_sp                             0x20002238   Data           0  startup_ctboard.o(STACK)

    Global Symbols

    Symbol Name                              Value     Ov Type        Size  Object(Section)

    BuildAttributes$$THM_ISAv4$E$P$D$K$B$S$7EM$VFPi3$EXTD16$VFPS$VFMA$PE$A:L22UL41UL21$X:L11$S22US41US21$IEEE1$IW$~IW$USESV6$~STKCKD$USESV7$~SHL$OTIME$ROPI$EBA8$STANDARDLIB$REQ8$PRES8$EABIv2 0x00000000   Number         0  anon$$obj.o ABSOLUTE
    Image$$ER_IROM1$$Limit                    - Undefined Weak Reference
    Image$$RW_IRAM1$$Base                     - Undefined Weak Reference
    Image$$RW_IRAM1$$ZI$$Base                 - Undefined Weak Reference
    Image$$RW_IRAM1$$ZI$$Limit                - Undefined Weak Reference
    __Vectors_Size                           0x000001ac   Number         0  startup_ctboard.o ABSOLUTE
    Stack_Size                               0x00002000   Number         0  startup_ctboard.o ABSOLUTE
    __Vectors                                0x08000000   Data           4  startup_ctboard.o(RESET)
    __Vectors_End                            0x080001ac   Data           0  startup_ctboard.o(RESET)
    __main                                   0x080001ad   Thumb Code    74  datainit_ctboard.o(.text)
    Reset_Handler                            0x08000229   Thumb Code     8  startup_ctboard.o(.text)
    NMI_Handler                              0x08000231   Thumb Code     2  startup_ctboard.o(.text)
    HardFault_Handler                        0x08000233   Thumb Code     2  startup_ctboard.o(.text)
    MemManage_Handler                        0x08000235   Thumb Code     2  startup_ctboard.o(.text)
    BusFault_Handler                         0x08000237   Thumb Code     2  startup_ctboard.o(.text)
    UsageFault_Handler                       0x08000239   Thumb Code     2  startup_ctboard.o(.text)
    SVC_Handler                              0x0800023b   Thumb Code     2  startup_ctboard.o(.text)
    DebugMon_Handler                         0x0800023d   Thumb Code     2  startup_ctboard.o(.text)
    PendSV_Handler                           0x0800023f   Thumb Code     2  startup_ctboard.o(.text)
    SysTick_Handler                          0x08000241   Thumb Code     2  startup_ctboard.o(.text)
    ADC_IRQHandler                           0x08000243   Thumb Code     0  startup_ctboard.o(.text)
    CAN1_RX0_IRQHandler                      0x08000243   Thumb Code     0  startup_ctboard.o(.text)
    CAN1_RX1_IRQHandler                      0x08000243   Thumb Code     0  startup_ctboard.o(.text)
    CAN1_SCE_IRQHandler                      0x08000243   Thumb Code     0  startup_ctboard.o(.text)
    CAN1_TX_IRQHandler                       0x08000243   Thumb Code     0  startup_ctboard.o(.text)
    CAN2_RX0_IRQHandler                      0x08000243   Thumb Code     0  startup_ctboard.o(.text)
    CAN2_RX1_IRQHandler                      0x08000243   Thumb Code     0  startup_ctboard.o(.text)
    CAN2_SCE_IRQHandler                      0x08000243   Thumb Code     0  startup_ctboard.o(.text)
    CAN2_TX_IRQHandler                       0x08000243   Thumb Code     0  startup_ctboard.o(.text)
    CRYP_IRQHandler                          0x08000243   Thumb Code     0  startup_ctboard.o(.text)
    DCMI_IRQHandler                          0x08000243   Thumb Code     0  startup_ctboard.o(.text)
    DMA1_Stream0_IRQHandler                  0x08000243   Thumb Code     0  startup_ctboard.o(.text)
    DMA1_Stream1_IRQHandler                  0x08000243   Thumb Code     0  startup_ctboard.o(.text)
    DMA1_Stream2_IRQHandler                  0x08000243   Thumb Code     0  startup_ctboard.o(.text)
    DMA1_Stream3_IRQHandler                  0x08000243   Thumb Code     0  startup_ctboard.o(.text)
    DMA1_Stream4_IRQHandler                  0x08000243   Thumb Code     0  startup_ctboard.o(.text)
    DMA1_Stream5_IRQHandler                  0x08000243   Thumb Code     0  startup_ctboard.o(.text)
    DMA1_Stream6_IRQHandler                  0x08000243   Thumb Code     0  startup_ctboard.o(.text)
    DMA1_Stream7_IRQHandler                  0x08000243   Thumb Code     0  startup_ctboard.o(.text)
    DMA2D_IRQHandler                         0x08000243   Thumb Code     0  startup_ctboard.o(.text)
    DMA2_Stream0_IRQHandler                  0x08000243   Thumb Code     0  startup_ctboard.o(.text)
    DMA2_Stream1_IRQHandler                  0x08000243   Thumb Code     0  startup_ctboard.o(.text)
    DMA2_Stream2_IRQHandler                  0x08000243   Thumb Code     0  startup_ctboard.o(.text)
    DMA2_Stream3_IRQHandler                  0x08000243   Thumb Code     0  startup_ctboard.o(.text)
    DMA2_Stream4_IRQHandler                  0x08000243   Thumb Code     0  startup_ctboard.o(.text)
    DMA2_Stream5_IRQHandler                  0x08000243   Thumb Code     0  startup_ctboard.o(.text)
    DMA2_Stream6_IRQHandler                  0x08000243   Thumb Code     0  startup_ctboard.o(.text)
    DMA2_Stream7_IRQHandler                  0x08000243   Thumb Code     0  startup_ctboard.o(.text)
    ETH_IRQHandler                           0x08000243   Thumb Code     0  startup_ctboard.o(.text)
    ETH_WKUP_IRQHandler                      0x08000243   Thumb Code     0  startup_ctboard.o(.text)
    EXTI0_IRQHandler                         0x08000243   Thumb Code     0  startup_ctboard.o(.text)
    EXTI15_10_IRQHandler                     0x08000243   Thumb Code     0  startup_ctboard.o(.text)
    EXTI1_IRQHandler                         0x08000243   Thumb Code     0  startup_ctboard.o(.text)
    EXTI2_IRQHandler                         0x08000243   Thumb Code     0  startup_ctboard.o(.text)
    EXTI3_IRQHandler                         0x08000243   Thumb Code     0  startup_ctboard.o(.text)
    EXTI4_IRQHandler                         0x08000243   Thumb Code     0  startup_ctboard.o(.text)
    EXTI9_5_IRQHandler                       0x08000243   Thumb Code     0  startup_ctboard.o(.text)
    FLASH_IRQHandler                         0x08000243   Thumb Code     0  startup_ctboard.o(.text)
    FMC_IRQHandler                           0x08000243   Thumb Code     0  startup_ctboard.o(.text)
    FPU_IRQHandler                           0x08000243   Thumb Code     0  startup_ctboard.o(.text)
    HASH_RNG_IRQHandler                      0x08000243   Thumb Code     0  startup_ctboard.o(.text)
    I2C1_ER_IRQHandler                       0x08000243   Thumb Code     0  startup_ctboard.o(.text)
    I2C1_EV_IRQHandler                       0x08000243   Thumb Code     0  startup_ctboard.o(.text)
    I2C2_ER_IRQHandler                       0x08000243   Thumb Code     0  startup_ctboard.o(.text)
    I2C2_EV_IRQHandler                       0x08000243   Thumb Code     0  startup_ctboard.o(.text)
    I2C3_ER_IRQHandler                       0x08000243   Thumb Code     0  startup_ctboard.o(.text)
    I2C3_EV_IRQHandler                       0x08000243   Thumb Code     0  startup_ctboard.o(.text)
    LTDC_ER_IRQHandler                       0x08000243   Thumb Code     0  startup_ctboard.o(.text)
    LTDC_IRQHandler                          0x08000243   Thumb Code     0  startup_ctboard.o(.text)
    OTG_FS_IRQHandler                        0x08000243   Thumb Code     0  startup_ctboard.o(.text)
    OTG_FS_WKUP_IRQHandler                   0x08000243   Thumb Code     0  startup_ctboard.o(.text)
    OTG_HS_EP1_IN_IRQHandler                 0x08000243   Thumb Code     0  startup_ctboard.o(.text)
    OTG_HS_EP1_OUT_IRQHandler                0x08000243   Thumb Code     0  startup_ctboard.o(.text)
    OTG_HS_IRQHandler                        0x08000243   Thumb Code     0  startup_ctboard.o(.text)
    OTG_HS_WKUP_IRQHandler                   0x08000243   Thumb Code     0  startup_ctboard.o(.text)
    PVD_IRQHandler                           0x08000243   Thumb Code     0  startup_ctboard.o(.text)
    RCC_IRQHandler                           0x08000243   Thumb Code     0  startup_ctboard.o(.text)
    RTC_Alarm_IRQHandler                     0x08000243   Thumb Code     0  startup_ctboard.o(.text)
    SAI1_IRQHandler                          0x08000243   Thumb Code     0  startup_ctboard.o(.text)
    SDIO_IRQHandler                          0x08000243   Thumb Code     0  startup_ctboard.o(.text)
    SPI1_IRQHandler                          0x08000243   Thumb Code     0  startup_ctboard.o(.text)
    SPI2_IRQHandler                          0x08000243   Thumb Code     0  startup_ctboard.o(.text)
    SPI3_IRQHandler                          0x08000243   Thumb Code     0  startup_ctboard.o(.text)
    SPI4_IRQHandler                          0x08000243   Thumb Code     0  startup_ctboard.o(.text)
    SPI5_IRQHandler                          0x08000243   Thumb Code     0  startup_ctboard.o(.text)
    SPI6_IRQHandler                          0x08000243   Thumb Code     0  startup_ctboard.o(.text)
    TAMP_STAMP_IRQHandler                    0x08000243   Thumb Code     0  startup_ctboard.o(.text)
    TIM1_BRK_TIM9_IRQHandler                 0x08000243   Thumb Code     0  startup_ctboard.o(.text)
    TIM1_CC_IRQHandler                       0x08000243   Thumb Code     0  startup_ctboard.o(.text)
    TIM1_TRG_COM_TIM11_IRQHandler            0x08000243   Thumb Code     0  startup_ctboard.o(.text)
    TIM1_UP_TIM10_IRQHandler                 0x08000243   Thumb Code     0  startup_ctboard.o(.text)
    TIM2_IRQHandler                          0x08000243   Thumb Code     0  startup_ctboard.o(.text)
    TIM3_IRQHandler                          0x08000243   Thumb Code     0  startup_ctboard.o(.text)
    TIM4_IRQHandler                          0x08000243   Thumb Code     0  startup_ctboard.o(.text)
    TIM5_IRQHandler                          0x08000243   Thumb Code     0  startup_ctboard.o(.text)
    TIM6_DAC_IRQHandler                      0x08000243   Thumb Code     0  startup_ctboard.o(.text)
    TIM7_IRQHandler                          0x08000243   Thumb Code     0  startup_ctboard.o(.text)
    TIM8_BRK_TIM12_IRQHandler                0x08000243   Thumb Code     0  startup_ctboard.o(.text)
    TIM8_CC_IRQHandler                       0x08000243   Thumb Code     0  startup_ctboard.o(.text)
    TIM8_TRG_COM_TIM14_IRQHandler            0x08000243   Thumb Code     0  startup_ctboard.o(.text)
    TIM8_UP_TIM13_IRQHandler                 0x08000243   Thumb Code     0  startup_ctboard.o(.text)
    UART4_IRQHandler                         0x08000243   Thumb Code     0  startup_ctboard.o(.text)
    UART5_IRQHandler                         0x08000243   Thumb Code     0  startup_ctboard.o(.text)
    UART7_IRQHandler                         0x08000243   Thumb Code     0  startup_ctboard.o(.text)
    UART8_IRQHandler                         0x08000243   Thumb Code     0  startup_ctboard.o(.text)
    USART1_IRQHandler                        0x08000243   Thumb Code     0  startup_ctboard.o(.text)
    USART2_IRQHandler                        0x08000243   Thumb Code     0  startup_ctboard.o(.text)
    USART3_IRQHandler                        0x08000243   Thumb Code     0  startup_ctboard.o(.text)
    USART6_IRQHandler                        0x08000243   Thumb Code     0  startup_ctboard.o(.text)
    WWDG_IRQHandler                          0x08000243   Thumb Code     0  startup_ctboard.o(.text)
    __aeabi_memcpy                           0x0800024d   Thumb Code     0  rt_memcpy_v6.o(.text)
    __rt_memcpy                              0x0800024d   Thumb Code   138  rt_memcpy_v6.o(.text)
    _memcpy_lastbytes                        0x080002b3   Thumb Code     0  rt_memcpy_v6.o(.text)
    __aeabi_memcpy4                          0x080002d7   Thumb Code     0  rt_memcpy_w.o(.text)
    __aeabi_memcpy8                          0x080002d7   Thumb Code     0  rt_memcpy_w.o(.text)
    __rt_memcpy_w                            0x080002d7   Thumb Code   100  rt_memcpy_w.o(.text)
    _memcpy_lastbytes_aligned                0x0800031f   Thumb Code     0  rt_memcpy_w.o(.text)
    AES_CBC_decrypt_buffer                   0x0800033d   Thumb Code    96  aes.o(.text.AES_CBC_decrypt_buffer)
    AES_CBC_encrypt_buffer                   0x0800039d   Thumb Code    86  aes.o(.text.AES_CBC_encrypt_buffer)
    AES_init_ctx_iv                          0x080003f5   Thumb Code    36  aes.o(.text.AES_init_ctx_iv)
    RTC_WKUP_IRQHandler                      0x080008a1   Thumb Code    34  wakeup_timer_1.o(.text.RTC_WKUP_IRQHandler)
    __system                                 0x080008c5   Thumb Code     4  system_ctboard.o(.text.__system)
    hal_fmc_init_sram                        0x080009b9   Thumb Code   318  hal_fmc.o(.text.hal_fmc_init_sram)
    hal_gpio_bit_reset                       0x08000af9   Thumb Code    30  hal_gpio.o(.text.hal_gpio_bit_reset)
    hal_gpio_init_alternate                  0x08000b19   Thumb Code   270  hal_gpio.o(.text.hal_gpio_init_alternate)
    hal_gpio_init_output                     0x08000c29   Thumb Code   290  hal_gpio.o(.text.hal_gpio_init_output)
    hal_pwr_set_overdrive                    0x08000d4d   Thumb Code     4  hal_pwr.o(.text.hal_pwr_set_overdrive)
    hal_rcc_reset                            0x08000d51   Thumb Code   154  hal_rcc.o(.text.hal_rcc_reset)
    hal_rcc_set_osc                          0x08000ded   Thumb Code   138  hal_rcc.o(.text.hal_rcc_set_osc)
    hal_rcc_setup_clock                      0x08000e79   Thumb Code   112  hal_rcc.o(.text.hal_rcc_setup_clock)
    hal_rcc_setup_pll                        0x08000ee9   Thumb Code   228  hal_rcc.o(.text.hal_rcc_setup_pll)
    main                                     0x08000fcd   Thumb Code   264  main.o(.text.main)
    output_init                              0x080010d5   Thumb Code    96  output_1.o(.text.output_init)
    power_enter_sleep                        0x08001135   Thumb Code    20  power_mode_1.o(.text.power_enter_sleep)
    power_init                               0x08001149   Thumb Code    26  power_mode_1.o(.text.power_init)
    power_set_clock                          0x08001165   Thumb Code   186  power_mode_1.o(.text.power_set_clock)
    runAES                                   0x08001221   Thumb Code    96  ese_aes.o(.text.runAES)
    setOutputEnable                          0x08001281   Thumb Code    24  output_1.o(.text.setOutputEnable)
    system_enter_run                         0x08001299   Thumb Code   324  system_ctboard.o(.text.system_enter_run)
    wakeup_init                              0x080013dd   Thumb Code   342  wakeup_timer_1.o(.text.wakeup_init)
    Image$$RO$$Limit                         0x08001734   Number         0  anon$$obj.o ABSOLUTE
    Image$$RW$$Base                          0x20000000   Number         0  anon$$obj.o ABSOLUTE
    iv                                       0x20000000   Data          16  ese_aes.o(.data.iv)
    key                                      0x20000010   Data          32  ese_aes.o(.data.key)
    Image$$ZI$$Base                          0x20000030   Number         0  anon$$obj.o ABSOLUTE
    Stack_Mem                                0x20000238   Data        8192  startup_ctboard.o(STACK)
    Image$$ZI$$Limit                         0x20002238   Number         0  anon$$obj.o ABSOLUTE



==============================================================================

Memory Map of the image

  Image Entry point : 0x08000229

  Load Region LR_1 (Base: 0x08000000, Size: 0x00001764, Max: 0xffffffff, ABSOLUTE)

    Execution Region ER_RO (Exec base: 0x08000000, Load base: 0x08000000, Size: 0x00001734, Max: 0xffffffff, ABSOLUTE)

    Exec Addr    Load Addr    Size         Type   Attr      Idx    E Section Name        Object

    0x08000000   0x08000000   0x000001ac   Data   RO           21    RESET               startup_ctboard.o
    0x080001ac   0x080001ac   0x0000007c   Code   RO           13    .text               datainit_ctboard.o
    0x08000228   0x08000228   0x00000024   Code   RO           22  * .text               startup_ctboard.o
    0x0800024c   0x0800024c   0x0000008a   Code   RO          230    .text               c_w.l(rt_memcpy_v6.o)
    0x080002d6   0x080002d6   0x00000064   Code   RO          232    .text               c_w.l(rt_memcpy_w.o)
    0x0800033a   0x0800033a   0x00000002   PAD
    0x0800033c   0x0800033c   0x00000060   Code   RO          213    .text.AES_CBC_decrypt_buffer  P02_library.lib(aes.o)
    0x0800039c   0x0800039c   0x00000056   Code   RO          211    .text.AES_CBC_encrypt_buffer  P02_library.lib(aes.o)
    0x080003f2   0x080003f2   0x00000002   PAD
    0x080003f4   0x080003f4   0x00000024   Code   RO          199    .text.AES_init_ctx_iv  P02_library.lib(aes.o)
    0x08000418   0x08000418   0x00000180   Code   RO          205    .text.Cipher        P02_library.lib(aes.o)
    0x08000598   0x08000598   0x0000023e   Code   RO          209    .text.InvCipher     P02_library.lib(aes.o)
    0x080007d6   0x080007d6   0x00000002   PAD
    0x080007d8   0x080007d8   0x000000c8   Code   RO          197    .text.KeyExpansion  P02_library.lib(aes.o)
    0x080008a0   0x080008a0   0x00000022   Code   RO          168    .text.RTC_WKUP_IRQHandler  P02_library.lib(wakeup_timer_1.o)
    0x080008c2   0x080008c2   0x00000002   PAD
    0x080008c4   0x080008c4   0x00000004   Code   RO           27    .text.__system      system_ctboard.o
    0x080008c8   0x080008c8   0x000000f0   Code   RO          157    .text.fill_init_structs  P02_library.lib(power_mode_1.o)
    0x080009b8   0x080009b8   0x0000013e   Code   RO           47    .text.hal_fmc_init_sram  hal_fmc.o
    0x08000af6   0x08000af6   0x00000002   PAD
    0x08000af8   0x08000af8   0x0000001e   Code   RO           75    .text.hal_gpio_bit_reset  hal_gpio.o
    0x08000b16   0x08000b16   0x00000002   PAD
    0x08000b18   0x08000b18   0x0000010e   Code   RO           65    .text.hal_gpio_init_alternate  hal_gpio.o
    0x08000c26   0x08000c26   0x00000002   PAD
    0x08000c28   0x08000c28   0x00000122   Code   RO           63    .text.hal_gpio_init_output  hal_gpio.o
    0x08000d4a   0x08000d4a   0x00000002   PAD
    0x08000d4c   0x08000d4c   0x00000004   Code   RO          103    .text.hal_pwr_set_overdrive  hal_pwr.o
    0x08000d50   0x08000d50   0x0000009a   Code   RO          115    .text.hal_rcc_reset  hal_rcc.o
    0x08000dea   0x08000dea   0x00000002   PAD
    0x08000dec   0x08000dec   0x0000008a   Code   RO          119    .text.hal_rcc_set_osc  hal_rcc.o
    0x08000e76   0x08000e76   0x00000002   PAD
    0x08000e78   0x08000e78   0x00000070   Code   RO          123    .text.hal_rcc_setup_clock  hal_rcc.o
    0x08000ee8   0x08000ee8   0x000000e4   Code   RO          121    .text.hal_rcc_setup_pll  hal_rcc.o
    0x08000fcc   0x08000fcc   0x00000108   Code   RO            2    .text.main          main.o
    0x080010d4   0x080010d4   0x00000060   Code   RO          133    .text.output_init   P02_library.lib(output_1.o)
    0x08001134   0x08001134   0x00000014   Code   RO          151    .text.power_enter_sleep  P02_library.lib(power_mode_1.o)
    0x08001148   0x08001148   0x0000001a   Code   RO          149    .text.power_init    P02_library.lib(power_mode_1.o)
    0x08001162   0x08001162   0x00000002   PAD
    0x08001164   0x08001164   0x000000ba   Code   RO          155    .text.power_set_clock  P02_library.lib(power_mode_1.o)
    0x0800121e   0x0800121e   0x00000002   PAD
    0x08001220   0x08001220   0x00000060   Code   RO          179    .text.runAES        P02_library.lib(ese_aes.o)
    0x08001280   0x08001280   0x00000018   Code   RO          139    .text.setOutputEnable  P02_library.lib(output_1.o)
    0x08001298   0x08001298   0x00000144   Code   RO           29    .text.system_enter_run  system_ctboard.o
    0x080013dc   0x080013dc   0x00000156   Code   RO          166    .text.wakeup_init   P02_library.lib(wakeup_timer_1.o)
    0x08001532   0x08001532   0x00000100   Data   RO          218    .rodata.rsbox       P02_library.lib(aes.o)
    0x08001632   0x08001632   0x00000100   Data   RO          217    .rodata.sbox        P02_library.lib(aes.o)


    Execution Region ER_RW (Exec base: 0x20000000, Load base: 0x08001734, Size: 0x00000030, Max: 0xffffffff, ABSOLUTE)

    Exec Addr    Load Addr    Size         Type   Attr      Idx    E Section Name        Object

    0x20000000   0x08001734   0x00000010   Data   RW          182    .data.iv            P02_library.lib(ese_aes.o)
    0x20000010   0x08001744   0x00000020   Data   RW          181    .data.key           P02_library.lib(ese_aes.o)


    Execution Region ER_ZI (Exec base: 0x20000030, Load base: 0x08001764, Size: 0x00002208, Max: 0xffffffff, ABSOLUTE)

    Exec Addr    Load Addr    Size         Type   Attr      Idx    E Section Name        Object

    0x20000030        -       0x00000100   Zero   RW            4    .bss.aes_message    main.o
    0x20000130        -       0x00000001   Zero   RW          141    .bss.output_enable  P02_library.lib(output_1.o)
    0x20000131        -       0x00000100   Zero   RW          186    .bss.runAES.ctx     P02_library.lib(ese_aes.o)
    0x20000231   0x08001764   0x00000007   PAD
    0x20000238        -       0x00002000   Zero   RW           19    STACK               startup_ctboard.o


==============================================================================

Image component sizes


      Code (inc. data)   RO Data    RW Data    ZI Data      Debug   Object Name

       124         50          0          0          0        488   datainit_ctboard.o
       318          0          0          0          0       3636   hal_fmc.o
       590          0          0          0          0      11922   hal_gpio.o
         4          0          0          0          0       2173   hal_pwr.o
       632          0          0          0          0       5518   hal_rcc.o
       264          0          0          0        256       3460   main.o
        36          8        428          0       8192        856   startup_ctboard.o
       328          0          0          0          0       7028   system_ctboard.o

    ----------------------------------------------------------------------
      2308         58        428          0       8448      35081   Object Totals
         0          0          0          0          0          0   (incl. Generated)
        12          0          0          0          0          0   (incl. Padding)

    ----------------------------------------------------------------------

      Code (inc. data)   RO Data    RW Data    ZI Data      Debug   Library Member Name

      1376         12        512          0          0       8851   aes.o
        96          0          0         48        256       1528   ese_aes.o
       120          0          0          0          1       2147   output_1.o
       472          4          0          0          0       4166   power_mode_1.o
       376          0          0          0          0       3405   wakeup_timer_1.o
       138          0          0          0          0         68   rt_memcpy_v6.o
       100          0          0          0          0         80   rt_memcpy_w.o

    ----------------------------------------------------------------------
      2690         16        514         48        264      20245   Library Totals
        12          0          2          0          7          0   (incl. Padding)

    ----------------------------------------------------------------------

      Code (inc. data)   RO Data    RW Data    ZI Data      Debug   Library Name

      2440         16        512         48        257      20097   P02_library.lib
       238          0          0          0          0        148   c_w.l

    ----------------------------------------------------------------------
      2690         16        514         48        264      20245   Library Totals

    ----------------------------------------------------------------------

==============================================================================


      Code (inc. data)   RO Data    RW Data    ZI Data      Debug   

      4998         74        942         48       8712      54974   Grand Totals
      4998         74        942         48       8712      54974   ELF Image Totals
      4998         74        942         48          0          0   ROM Totals

==============================================================================

    Total RO  Size (Code + RO Data)                 5940 (   5.80kB)
    Total RW  Size (RW Data + ZI Data)              8760 (   8.55kB)
    Total ROM Size (Code + RO Data + RW Data)       5988 (   5.85kB)

==============================================================================

